Certificate:
    Data:
        Version: 3 (0x2)
        Serial Number: 1 (0x1)
    Signature Algorithm: sha256WithRSAEncryption
        Issuer: C=CA, ST=BC, L=Vancouver, O=SKAFE Demo CA
        Validity
            Not Before: Mar  7 20:40:32 2016 GMT
            Not After : Mar  7 20:40:32 2017 GMT
        Subject: C=CA, ST=BC, L=Vancouver, O=SKAFE Demo Agent, CN=demo.agent.local
        Subject Public Key Info:
            Public Key Algorithm: rsaEncryption
                Public-Key: (2048 bit)
                Modulus:
                    00:9f:40:55:f1:a8:84:d2:6e:b3:ff:73:0a:29:9f:
                    1d:cc:4c:13:f0:f0:cf:08:38:dd:2c:15:1b:26:a5:
                    27:19:c8:82:6a:82:a4:07:c4:00:77:5d:c4:9a:53:
                    15:73:54:4d:38:78:fe:6f:09:f4:9e:61:79:a7:46:
                    d3:b4:b3:e8:84:fa:54:71:5b:3c:8e:4d:1a:4c:61:
                    a8:f0:37:90:27:7e:f7:af:00:50:6c:3c:1c:02:b9:
                    19:3a:7b:5d:a7:13:4d:27:26:15:ce:e0:24:76:34:
                    c9:d1:33:86:b5:4e:9b:3d:bb:6b:a9:e4:aa:ea:08:
                    75:7c:7f:1c:38:5a:51:e6:5a:4e:49:7d:d4:87:25:
                    75:2d:db:c9:26:74:f5:ea:f4:b7:a8:4e:d9:4d:7d:
                    a1:77:19:86:db:44:54:7b:87:56:6f:4e:25:e0:de:
                    a1:dc:4e:28:b6:ad:d4:c6:54:4b:15:92:32:34:c1:
                    77:b4:71:9c:6c:af:78:2c:b6:b3:36:04:cd:1b:6e:
                    e1:e7:0f:cd:03:2f:ea:ee:c8:f9:8f:06:cc:cc:21:
                    fd:f0:dd:d3:b3:00:da:dd:15:e0:2c:53:7a:81:7f:
                    62:9f:9a:00:11:fa:12:e7:01:fa:16:b3:c9:21:4b:
                    16:a9:c7:38:f3:e7:7c:56:7b:70:9b:dd:1a:f2:53:
                    49:a9
                Exponent: 65537 (0x10001)
        X509v3 extensions:
            X509v3 Basic Constraints: 
                CA:FALSE
            Netscape Comment: 
                OpenSSL Generated Certificate
            X509v3 Subject Key Identifier: 
                87:E9:98:E9:4F:1A:08:C7:70:E3:F8:08:D0:36:CD:8D:5B:A9:0E:2C
            X509v3 Authority Key Identifier: 
                keyid:BE:85:C1:04:21:7F:A3:F0:35:14:E3:2D:F3:40:5E:C4:42:3D:52:8A

    Signature Algorithm: sha256WithRSAEncryption
         89:a7:56:f3:6a:40:13:eb:6f:a0:ee:a5:22:5c:73:5f:93:11:
         57:25:27:f9:d8:a1:c7:f1:5e:e5:d5:81:ef:62:74:2f:34:53:
         2d:2e:b3:eb:6f:ef:b2:4e:21:ec:ca:a1:65:cd:44:2a:1d:e9:
         ba:13:39:9c:eb:9c:97:fb:1c:53:35:83:4e:94:f3:f7:f5:e0:
         43:ef:08:10:68:14:79:a2:2a:d5:82:ee:6e:a3:82:38:c2:41:
         0a:ac:e7:c5:19:66:5c:ad:68:9f:5d:57:97:c1:5f:b4:67:23:
         c9:02:12:ee:73:0b:af:0f:93:1b:b6:2a:b8:37:08:cb:51:6c:
         f3:d0:bc:73:c2:b3:a8:18:b6:ce:d7:06:2c:f5:71:6b:c0:69:
         39:06:4c:47:f4:7e:b1:e2:a3:e7:a1:fc:d2:c1:7b:01:5f:47:
         53:51:98:ef:a5:ec:28:27:6b:40:3b:90:ea:64:2c:ac:9f:56:
         85:2f:cf:0d:03:85:ce:3f:cf:b5:b5:55:19:4b:08:60:bd:e8:
         4f:bc:9e:9f:9a:b7:17:50:c1:74:93:93:82:8d:f0:8d:ff:fc:
         16:42:c7:1b:31:28:9f:06:ad:9d:f0:73:0f:47:aa:92:3c:2e:
         80:94:e0:a2:6e:ac:e0:33:36:84:5e:c8:3d:99:46:34:34:ad:
         21:6e:e1:0a
-----BEGIN CERTIFICATE-----
MIIDoDCCAoigAwIBAgIBATANBgkqhkiG9w0BAQsFADBGMQswCQYDVQQGEwJDQTEL
MAkGA1UECAwCQkMxEjAQBgNVBAcMCVZhbmNvdXZlcjEWMBQGA1UECgwNU0tBRkUg
RGVtbyBDQTAeFw0xNjAzMDcyMDQwMzJaFw0xNzAzMDcyMDQwMzJaMGQxCzAJBgNV
BAYTAkNBMQswCQYDVQQIDAJCQzESMBAGA1UEBwwJVmFuY291dmVyMRkwFwYDVQQK
DBBTS0FGRSBEZW1vIEFnZW50MRkwFwYDVQQDDBBkZW1vLmFnZW50LmxvY2FsMIIB
IjANBgkqhkiG9w0BAQEFAAOCAQ8AMIIBCgKCAQEAn0BV8aiE0m6z/3MKKZ8dzEwT
8PDPCDjdLBUbJqUnGciCaoKkB8QAd13EmlMVc1RNOHj+bwn0nmF5p0bTtLPohPpU
cVs8jk0aTGGo8DeQJ373rwBQbDwcArkZOntdpxNNJyYVzuAkdjTJ0TOGtU6bPbtr
qeSq6gh1fH8cOFpR5lpOSX3UhyV1LdvJJnT16vS3qE7ZTX2hdxmG20RUe4dWb04l
4N6h3E4otq3UxlRLFZIyNMF3tHGcbK94LLazNgTNG27h5w/NAy/q7sj5jwbMzCH9
8N3TswDa3RXgLFN6gX9in5oAEfoS5wH6FrPJIUsWqcc48+d8Vntwm90a8lNJqQID
AQABo3sweTAJBgNVHRMEAjAAMCwGCWCGSAGG+EIBDQQfFh1PcGVuU1NMIEdlbmVy
YXRlZCBDZXJ0aWZpY2F0ZTAdBgNVHQ4EFgQUh+mY6U8aCMdw4/gI0DbNjVupDiww
HwYDVR0jBBgwFoAUvoXBBCF/o/A1FOMt80BexEI9UoowDQYJKoZIhvcNAQELBQAD
ggEBAImnVvNqQBPrb6DupSJcc1+TEVclJ/nYocfxXuXVge9idC80Uy0us+tv77JO
IezKoWXNRCod6boTOZzrnJf7HFM1g06U8/f14EPvCBBoFHmiKtWC7m6jgjjCQQqs
58UZZlytaJ9dV5fBX7RnI8kCEu5zC68Pkxu2Krg3CMtRbPPQvHPCs6gYts7XBiz1
cWvAaTkGTEf0frHio+eh/NLBewFfR1NRmO+l7Cgna0A7kOpkLKyfVoUvzw0Dhc4/
z7W1VRlLCGC96E+8np+atxdQwXSTk4KN8I3//BZCxxsxKJ8GrZ3wcw9HqpI8LoCU
4KJurOAzNoReyD2ZRjQ0rSFu4Qo=
-----END CERTIFICATE-----
