Certificate:
    Data:
        Version: 3 (0x2)
        Serial Number: 2 (0x2)
    Signature Algorithm: sha256WithRSAEncryption
        Issuer: C=CA, ST=BC, L=Vancouver, O=SKAFE Demo CA
        Validity
            Not Before: Mar  7 20:47:46 2016 GMT
            Not After : Mar  7 20:47:46 2017 GMT
        Subject: C=CA, ST=BC, L=Vancouver, O=SKAFE Demo Server, CN=demo.server.local
        Subject Public Key Info:
            Public Key Algorithm: rsaEncryption
                Public-Key: (2048 bit)
                Modulus:
                    00:b5:02:66:91:fd:8d:f2:91:95:3e:bf:8d:0e:69:
                    f8:09:e0:9c:80:88:ec:8d:c6:91:c8:4c:70:fc:1d:
                    b5:8f:a6:89:1f:90:cd:6e:36:79:6c:67:a7:f2:22:
                    34:c1:b7:75:cc:87:47:87:c8:2c:6b:9f:7a:42:3f:
                    ab:63:50:37:b0:bd:23:82:ed:7e:09:1b:b0:53:64:
                    a9:4f:55:5b:f5:ad:49:2d:f5:be:0a:2b:76:92:f6:
                    28:4e:a5:63:f7:2b:f7:13:0e:b5:9c:d8:7a:6d:64:
                    ec:f0:54:f4:a8:22:4a:1f:ba:54:52:f1:34:f9:05:
                    1e:bc:93:b7:9d:01:30:c1:7b:bf:89:78:d3:53:6e:
                    3b:69:bb:05:7f:30:4b:f9:b9:3d:09:ca:51:b2:ef:
                    f4:01:32:17:16:47:1d:59:1b:bd:d7:3a:17:45:2d:
                    46:a6:7f:a7:41:ca:9a:f5:f4:62:cd:b7:a9:3b:eb:
                    a7:b9:ad:35:44:dc:74:7e:20:59:db:36:78:38:39:
                    22:18:ce:92:12:07:f6:1b:37:d9:e4:fa:12:0f:c1:
                    6f:4c:79:fa:61:bd:9b:a7:60:03:55:e0:d9:e0:e6:
                    7e:cf:8c:a8:14:52:87:a9:9b:d0:9e:58:10:cd:dc:
                    ba:1a:e9:50:e6:09:e3:8c:ae:38:cd:18:57:8e:c2:
                    1f:a3
                Exponent: 65537 (0x10001)
        X509v3 extensions:
            X509v3 Basic Constraints: 
                CA:FALSE
            Netscape Comment: 
                OpenSSL Generated Certificate
            X509v3 Subject Key Identifier: 
                02:B2:78:22:5C:6E:2C:AC:8B:F4:0D:D3:F3:85:FC:B2:A0:E8:17:AB
            X509v3 Authority Key Identifier: 
                keyid:BE:85:C1:04:21:7F:A3:F0:35:14:E3:2D:F3:40:5E:C4:42:3D:52:8A

    Signature Algorithm: sha256WithRSAEncryption
         a5:00:7e:55:1b:e1:82:1c:b1:0b:cb:e6:fa:bf:ad:75:8c:bb:
         6a:93:a0:9c:1a:70:0b:eb:f5:e4:da:eb:eb:60:05:99:9e:9b:
         b5:85:f5:c8:ff:83:6d:06:e7:b3:59:de:3c:e7:d2:f9:eb:44:
         62:dd:4e:63:f5:3a:cd:7a:a6:41:0d:44:7e:5d:42:54:74:2f:
         a9:91:58:3e:68:fe:f2:a5:6f:df:68:c8:cd:fd:0f:a1:cf:a9:
         d5:5f:7e:ed:48:3e:1a:26:83:5e:00:56:ac:33:34:55:b8:eb:
         aa:1e:1a:71:64:c7:e2:c1:8a:75:f5:fa:46:3b:67:eb:65:39:
         2b:7d:de:cd:fe:91:06:00:e8:ec:2a:2b:4f:43:e9:fe:48:59:
         a8:1d:b3:dc:26:f3:4e:5e:64:e6:c0:06:e2:fb:24:53:91:6e:
         d8:d6:88:8f:88:28:4b:fc:d9:a8:59:7d:4d:11:7b:3e:85:62:
         23:c2:c6:a9:6c:59:02:b7:c0:e6:ee:68:95:c3:3e:91:e1:22:
         7b:e6:86:71:66:a0:e1:1a:fd:0e:cf:30:56:4f:24:d3:65:a5:
         08:19:17:c2:38:64:f3:08:90:f2:fe:2d:59:c6:f4:de:3d:8c:
         8d:70:e7:0e:0b:95:cb:dc:b1:48:78:b5:40:1f:84:23:14:79:
         79:8d:d0:bd
-----BEGIN CERTIFICATE-----
MIIDojCCAoqgAwIBAgIBAjANBgkqhkiG9w0BAQsFADBGMQswCQYDVQQGEwJDQTEL
MAkGA1UECAwCQkMxEjAQBgNVBAcMCVZhbmNvdXZlcjEWMBQGA1UECgwNU0tBRkUg
RGVtbyBDQTAeFw0xNjAzMDcyMDQ3NDZaFw0xNzAzMDcyMDQ3NDZaMGYxCzAJBgNV
BAYTAkNBMQswCQYDVQQIDAJCQzESMBAGA1UEBwwJVmFuY291dmVyMRowGAYDVQQK
DBFTS0FGRSBEZW1vIFNlcnZlcjEaMBgGA1UEAwwRZGVtby5zZXJ2ZXIubG9jYWww
ggEiMA0GCSqGSIb3DQEBAQUAA4IBDwAwggEKAoIBAQC1AmaR/Y3ykZU+v40OafgJ
4JyAiOyNxpHITHD8HbWPpokfkM1uNnlsZ6fyIjTBt3XMh0eHyCxrn3pCP6tjUDew
vSOC7X4JG7BTZKlPVVv1rUkt9b4KK3aS9ihOpWP3K/cTDrWc2HptZOzwVPSoIkof
ulRS8TT5BR68k7edATDBe7+JeNNTbjtpuwV/MEv5uT0JylGy7/QBMhcWRx1ZG73X
OhdFLUamf6dBypr19GLNt6k766e5rTVE3HR+IFnbNng4OSIYzpISB/YbN9nk+hIP
wW9MefphvZunYANV4Nng5n7PjKgUUoepm9CeWBDN3Loa6VDmCeOMrjjNGFeOwh+j
AgMBAAGjezB5MAkGA1UdEwQCMAAwLAYJYIZIAYb4QgENBB8WHU9wZW5TU0wgR2Vu
ZXJhdGVkIENlcnRpZmljYXRlMB0GA1UdDgQWBBQCsngiXG4srIv0DdPzhfyyoOgX
qzAfBgNVHSMEGDAWgBS+hcEEIX+j8DUU4y3zQF7EQj1SijANBgkqhkiG9w0BAQsF
AAOCAQEApQB+VRvhghyxC8vm+r+tdYy7apOgnBpwC+v15Nrr62AFmZ6btYX1yP+D
bQbns1nePOfS+etEYt1OY/U6zXqmQQ1Efl1CVHQvqZFYPmj+8qVv32jIzf0Poc+p
1V9+7Ug+GiaDXgBWrDM0Vbjrqh4acWTH4sGKdfX6Rjtn62U5K33ezf6RBgDo7Cor
T0Pp/khZqB2z3CbzTl5k5sAG4vskU5Fu2NaIj4goS/zZqFl9TRF7PoViI8LGqWxZ
ArfA5u5olcM+keEie+aGcWag4Rr9Ds8wVk8k02WlCBkXwjhk8wiQ8v4tWcb03j2M
jXDnDguVy9yxSHi1QB+EIxR5eY3QvQ==
-----END CERTIFICATE-----
